target datalayout = "e-m:e-p270:32:32-p271:32:32-p272:64:64-i64:64-i128:128-f80:128-n8:16:32:64-S128"
target triple = "x86_64-pc-linux-gnu"

%struct.LibRaw_LjpegDecompressor = type <{ %struct.ByteStreamBE, %struct.LibRaw_SOFInfo, i32, i32, i32, [4 x i8], %"class.std::vector.0", i32, [4 x i8] }>
%struct.ByteStreamBE = type { ptr, i32, i32 }
%struct.LibRaw_SOFInfo = type <{ i32, i32, i32, i32, %"class.std::vector", i8, [7 x i8] }>
%"class.std::vector" = type { %"struct.std::_Vector_base" }
%"struct.std::_Vector_base" = type { %"struct.std::_Vector_base<LibRaw_JpegComponentInfo, std::allocator<LibRaw_JpegComponentInfo>>::_Vector_impl" }
%"struct.std::_Vector_base<LibRaw_JpegComponentInfo, std::allocator<LibRaw_JpegComponentInfo>>::_Vector_impl" = type { %"struct.std::_Vector_base<LibRaw_JpegComponentInfo, std::allocator<LibRaw_JpegComponentInfo>>::_Vector_impl_data" }
%"struct.std::_Vector_base<LibRaw_JpegComponentInfo, std::allocator<LibRaw_JpegComponentInfo>>::_Vector_impl_data" = type { ptr, ptr, ptr }
%"class.std::vector.0" = type { %"struct.std::_Vector_base.1" }
%"struct.std::_Vector_base.1" = type { %"struct.std::_Vector_base<HuffTable, std::allocator<HuffTable>>::_Vector_impl" }
%"struct.std::_Vector_base<HuffTable, std::allocator<HuffTable>>::_Vector_impl" = type { %"struct.std::_Vector_base<HuffTable, std::allocator<HuffTable>>::_Vector_impl_data" }
%"struct.std::_Vector_base<HuffTable, std::allocator<HuffTable>>::_Vector_impl_data" = type { ptr, ptr, ptr }
%struct.LibRaw_JpegComponentInfo = type { i32, i32, i32, i32, i32 }

; Function Attrs: mustprogress nounwind uwtable
define linkonce_odr noundef nonnull align 4 dereferenceable(20) ptr @_ZNSt6vectorI24LibRaw_JpegComponentInfoSaIS0_EEixEm(ptr noundef nonnull align 8 dereferenceable(24) %0, i64 noundef %1) #1 comdat align 2 {
  %3 = alloca ptr, align 8
  %4 = alloca i64, align 8
  store ptr %0, ptr %3, align 8, !tbaa !67
  store i64 %1, ptr %4, align 8, !tbaa !64
  %5 = load ptr, ptr %3, align 8
  %6 = getelementptr inbounds nuw %"struct.std::_Vector_base", ptr %5, i32 0, i32 0
  %7 = getelementptr inbounds nuw %"struct.std::_Vector_base<LibRaw_JpegComponentInfo, std::allocator<LibRaw_JpegComponentInfo>>::_Vector_impl_data", ptr %6, i32 0, i32 0
  %8 = load ptr, ptr %7, align 8, !tbaa !69
  %9 = load i64, ptr %4, align 8, !tbaa !64
  %10 = getelementptr inbounds nuw %struct.LibRaw_JpegComponentInfo, ptr %8, i64 %9
  ret ptr %10
}

; Function Attrs: mustprogress uwtable
define noundef zeroext i1 @_ZN27LibRaw_SonyYCC_Decompressor11decode_sonyERSt6vectorItSaItEEii(ptr noundef nonnull align 8 dereferenceable(108) %0, ptr noundef nonnull align 8 dereferenceable(24) %1, i32 noundef %2, i32 noundef %3) #0 align 2 {
  %5 = alloca i1, align 1
  %6 = alloca ptr, align 8
  %7 = alloca ptr, align 8
  %8 = alloca i32, align 4
  %9 = alloca i32, align 4
  store ptr %0, ptr %6, align 8, !tbaa !6
  store ptr %1, ptr %7, align 8, !tbaa !11
  store i32 %2, ptr %8, align 4, !tbaa !13
  store i32 %3, ptr %9, align 4, !tbaa !13
  %10 = load ptr, ptr %6, align 8
  %11 = getelementptr inbounds nuw %struct.LibRaw_LjpegDecompressor, ptr %10, i32 0, i32 1
  %12 = getelementptr inbounds nuw %struct.LibRaw_SOFInfo, ptr %11, i32 0, i32 4
  %13 = call noundef nonnull align 4 dereferenceable(20) ptr @_ZNSt6vectorI24LibRaw_JpegComponentInfoSaIS0_EEixEm(ptr noundef nonnull align 8 dereferenceable(24) %12, i64 noundef 0) #13
  %14 = getelementptr inbounds nuw %struct.LibRaw_JpegComponentInfo, ptr %13, i32 0, i32 3
  %15 = load i32, ptr %14, align 4, !tbaa !91
  %16 = icmp eq i32 %15, 2
  br i1 %16, label %17, label %29

17:                                               ; preds = %4
  %18 = getelementptr inbounds nuw %struct.LibRaw_LjpegDecompressor, ptr %10, i32 0, i32 1
  %19 = getelementptr inbounds nuw %struct.LibRaw_SOFInfo, ptr %18, i32 0, i32 4
  %20 = call noundef nonnull align 4 dereferenceable(20) ptr @_ZNSt6vectorI24LibRaw_JpegComponentInfoSaIS0_EEixEm(ptr noundef nonnull align 8 dereferenceable(24) %19, i64 noundef 0) #13
  %21 = getelementptr inbounds nuw %struct.LibRaw_JpegComponentInfo, ptr %20, i32 0, i32 4
  %22 = load i32, ptr %21, align 4, !tbaa !92
  %23 = icmp eq i32 %22, 2
  br i1 %23, label %24, label %29

24:                                               ; preds = %17
  %25 = load ptr, ptr %7, align 8, !tbaa !11
  %26 = load i32, ptr %8, align 4, !tbaa !13
  %27 = load i32, ptr %9, align 4, !tbaa !13
  %28 = call noundef zeroext i1 @_ZN27LibRaw_SonyYCC_Decompressor21decode_sony_ljpeg_420ERSt6vectorItSaItEEii(ptr noundef nonnull align 8 dereferenceable(108) %10, ptr noundef nonnull align 8 dereferenceable(24) %25, i32 noundef %26, i32 noundef %27)
  store i1 %28, ptr %5, align 1
  br label %49

29:                                               ; preds = %17, %4
  %30 = getelementptr inbounds nuw %struct.LibRaw_LjpegDecompressor, ptr %10, i32 0, i32 1
  %31 = getelementptr inbounds nuw %struct.LibRaw_SOFInfo, ptr %30, i32 0, i32 4
  %32 = call noundef nonnull align 4 dereferenceable(20) ptr @_ZNSt6vectorI24LibRaw_JpegComponentInfoSaIS0_EEixEm(ptr noundef nonnull align 8 dereferenceable(24) %31, i64 noundef 0) #13
  %33 = getelementptr inbounds nuw %struct.LibRaw_JpegComponentInfo, ptr %32, i32 0, i32 3
  %34 = load i32, ptr %33, align 4, !tbaa !91
  %35 = icmp eq i32 %34, 2
  br i1 %35, label %36, label %48

36:                                               ; preds = %29
  %37 = getelementptr inbounds nuw %struct.LibRaw_LjpegDecompressor, ptr %10, i32 0, i32 1
  %38 = getelementptr inbounds nuw %struct.LibRaw_SOFInfo, ptr %37, i32 0, i32 4
  %39 = call noundef nonnull align 4 dereferenceable(20) ptr @_ZNSt6vectorI24LibRaw_JpegComponentInfoSaIS0_EEixEm(ptr noundef nonnull align 8 dereferenceable(24) %38, i64 noundef 0) #13
  %40 = getelementptr inbounds nuw %struct.LibRaw_JpegComponentInfo, ptr %39, i32 0, i32 4
  %41 = load i32, ptr %40, align 4, !tbaa !92
  %42 = icmp eq i32 %41, 1
  br i1 %42, label %43, label %48

43:                                               ; preds = %36
  %44 = load ptr, ptr %7, align 8, !tbaa !11
  %45 = load i32, ptr %8, align 4, !tbaa !13
  %46 = load i32, ptr %9, align 4, !tbaa !13
  %47 = call noundef zeroext i1 @_ZN24LibRaw_LjpegDecompressor16decode_ljpeg_422ERSt6vectorItSaItEEii(ptr noundef nonnull align 8 dereferenceable(108) %10, ptr noundef nonnull align 8 dereferenceable(24) %44, i32 noundef %45, i32 noundef %46)
  store i1 %47, ptr %5, align 1
  br label %49

48:                                               ; preds = %36, %29
  store i1 false, ptr %5, align 1
  br label %49

49:                                               ; preds = %48, %43, %24
  %50 = load i1, ptr %5, align 1
  ret i1 %50
}