; Function Attrs: mustprogress uwtable
define noundef zeroext i1 @_ZN27LibRaw_SonyYCC_Decompressor11decode_sonyERSt6vectorItSaItEEii(ptr noundef nonnull align 8 dereferenceable(108) %0, ptr noundef nonnull align 8 dereferenceable(24) %1, i32 noundef %2, i32 noundef %3) local_unnamed_addr #0 align 2 {
  %5 = getelementptr inbounds nuw i8, ptr %0, i64 32
  %6 = load ptr, ptr %5, align 8, !tbaa !31
  %7 = getelementptr inbounds nuw i8, ptr %6, i64 12
  %8 = load i32, ptr %7, align 4, !tbaa !70
  %9 = icmp eq i32 %8, 2
  br i1 %9, label %10, label %17

10:                                               ; preds = %4
  %11 = getelementptr inbounds nuw i8, ptr %6, i64 16
  %12 = load i32, ptr %11, align 4, !tbaa !71
  switch i32 %12, label %17 [
    i32 2, label %13
    i32 1, label %15
  ]

13:                                               ; preds = %10
  %14 = tail call noundef zeroext i1 @_ZN27LibRaw_SonyYCC_Decompressor21decode_sony_ljpeg_420ERSt6vectorItSaItEEii(ptr noundef nonnull align 8 dereferenceable(108) %0, ptr noundef nonnull align 8 dereferenceable(24) %1, i32 noundef %2, i32 noundef %3)
  br label %17

15:                                               ; preds = %10
  %16 = tail call noundef zeroext i1 @_ZN24LibRaw_LjpegDecompressor16decode_ljpeg_422ERSt6vectorItSaItEEii(ptr noundef nonnull align 8 dereferenceable(108) %0, ptr noundef nonnull align 8 dereferenceable(24) %1, i32 noundef %2, i32 noundef %3)
  br label %17

17:                                               ; preds = %10, %4, %15, %13
  %.0 = phi i1 [ %14, %13 ], [ %16, %15 ], [ false, %4 ], [ false, %10 ]
  ret i1 %.0
}